	.text
	.def	@feat.00;
	.scl	3;
	.type	0;
	.endef
	.globl	@feat.00
.set @feat.00, 0
	.file	"test_context.c"
	.file	1 "D:/ZetaDevelop/ZetaExe" "test_context.c"
	.file	2 "C:/Program Files/llvm-mingw-20231003-msvcrt-x86_64/include" "corecrt.h"
	.def	Thread_Create;
	.scl	2;
	.type	32;
	.endef
	.globl	Thread_Create                   # -- Begin function Thread_Create
	.p2align	4, 0x90
Thread_Create:                          # @Thread_Create
.Lfunc_begin0:
	.loc	1 54 0                          # test_context.c:54:0
.seh_proc Thread_Create
# %bb.0:
	pushq	%rsi
	.seh_pushreg %rsi
	pushq	%rdi
	.seh_pushreg %rdi
	subq	$232, %rsp
	.seh_stackalloc 232
	movaps	%xmm15, 208(%rsp)               # 16-byte Spill
	.seh_savexmm %xmm15, 208
	movaps	%xmm14, 192(%rsp)               # 16-byte Spill
	.seh_savexmm %xmm14, 192
	movaps	%xmm13, 176(%rsp)               # 16-byte Spill
	.seh_savexmm %xmm13, 176
	movaps	%xmm12, 160(%rsp)               # 16-byte Spill
	.seh_savexmm %xmm12, 160
	movaps	%xmm11, 144(%rsp)               # 16-byte Spill
	.seh_savexmm %xmm11, 144
	movaps	%xmm10, 128(%rsp)               # 16-byte Spill
	.seh_savexmm %xmm10, 128
	movaps	%xmm9, 112(%rsp)                # 16-byte Spill
	.seh_savexmm %xmm9, 112
	movaps	%xmm8, 96(%rsp)                 # 16-byte Spill
	.seh_savexmm %xmm8, 96
	movaps	%xmm7, 80(%rsp)                 # 16-byte Spill
	.seh_savexmm %xmm7, 80
	movaps	%xmm6, 64(%rsp)                 # 16-byte Spill
	.seh_savexmm %xmm6, 64
	.seh_endprologue
	movq	%rcx, 56(%rsp)
	movq	%rdx, 48(%rsp)
.Ltmp0:
	.loc	1 55 18 prologue_end            # test_context.c:55:18
	movq	$16777216, 40(%rsp)             # imm = 0x1000000
	.loc	1 58 38                         # test_context.c:58:38
	movl	$16777216, %ecx                 # imm = 0x1000000
	callq	malloc
	movq	%rax, %rdi
	.loc	1 58 57 is_stmt 0               # test_context.c:58:57
	addq	$16777216, %rdi                 # imm = 0x1000000
	.loc	1 58 71                         # test_context.c:58:71
	movq	48(%rsp), %rsi
	.loc	1 58 9                          # test_context.c:58:9
	callq	Thread_Create_
	movq	%rax, %rcx
	.loc	1 57 5 is_stmt 1                # test_context.c:57:5
	movq	56(%rsp), %rax
	.loc	1 57 19 is_stmt 0               # test_context.c:57:19
	movq	%rcx, (%rax)
	movaps	64(%rsp), %xmm6                 # 16-byte Reload
	movaps	80(%rsp), %xmm7                 # 16-byte Reload
	movaps	96(%rsp), %xmm8                 # 16-byte Reload
	movaps	112(%rsp), %xmm9                # 16-byte Reload
	movaps	128(%rsp), %xmm10               # 16-byte Reload
	movaps	144(%rsp), %xmm11               # 16-byte Reload
	movaps	160(%rsp), %xmm12               # 16-byte Reload
	movaps	176(%rsp), %xmm13               # 16-byte Reload
	movaps	192(%rsp), %xmm14               # 16-byte Reload
	movaps	208(%rsp), %xmm15               # 16-byte Reload
	.loc	1 59 1 is_stmt 1                # test_context.c:59:1
	.loc	1 59 1 epilogue_begin is_stmt 0 # test_context.c:59:1
	addq	$232, %rsp
	popq	%rdi
	popq	%rsi
	retq
.Ltmp1:
.Lfunc_end0:
	.seh_endproc
                                        # -- End function
	.def	Func1;
	.scl	2;
	.type	32;
	.endef
	.globl	Func1                           # -- Begin function Func1
	.p2align	4, 0x90
Func1:                                  # @Func1
.Lfunc_begin1:
	.loc	1 67 0 is_stmt 1                # test_context.c:67:0
.seh_proc Func1
# %bb.0:
	subq	$40, %rsp
	.seh_stackalloc 40
	.seh_endprologue
.Ltmp2:
	.loc	1 68 5 prologue_end             # test_context.c:68:5
	leaq	.L.str(%rip), %rcx
	leaq	.L.str.1(%rip), %rdx
	movl	$68, %r8d
	callq	printf
	.loc	1 69 5                          # test_context.c:69:5
	leaq	.L.str.2(%rip), %rcx
	leaq	main_thread(%rip), %rdx
	callq	printf
	.loc	1 70 54                         # test_context.c:70:54
	movq	main_thread(%rip), %rdx
	.loc	1 70 5 is_stmt 0                # test_context.c:70:5
	leaq	.L.str.3(%rip), %rcx
	callq	printf
	.loc	1 71 28 is_stmt 1               # test_context.c:71:28
	movq	main_thread(%rip), %rax
	.loc	1 71 8 is_stmt 0                # test_context.c:71:8
	movq	%rax, 32(%rsp)
	.loc	1 72 42 is_stmt 1               # test_context.c:72:42
	movq	32(%rsp), %rdx
	.loc	1 72 5 is_stmt 0                # test_context.c:72:5
	leaq	.L.str.3(%rip), %rcx
	callq	printf
	.loc	1 73 5 is_stmt 1                # test_context.c:73:5
	leaq	.L.str(%rip), %rcx
	leaq	.L.str.1(%rip), %rdx
	movl	$73, %r8d
	callq	printf
	.loc	1 74 5                          # test_context.c:74:5
	xorl	%ecx, %ecx
	callq	exit
	int3
.Ltmp3:
.Lfunc_end1:
	.seh_endproc
                                        # -- End function
	.def	printf;
	.scl	3;
	.type	32;
	.endef
	.p2align	4, 0x90                         # -- Begin function printf
printf:                                 # @printf
.Lfunc_begin2:
	.file	3 "C:/Program Files/llvm-mingw-20231003-msvcrt-x86_64/include" "stdio.h"
	.loc	3 380 0                         # C:/Program Files/llvm-mingw-20231003-msvcrt-x86_64/include/stdio.h:380:0
.seh_proc printf
# %bb.0:
	subq	$56, %rsp
	.seh_stackalloc 56
	.seh_endprologue
	movq	%r9, 88(%rsp)
	movq	%r8, 80(%rsp)
	movq	%rdx, 72(%rsp)
	movq	%rcx, 48(%rsp)
	leaq	72(%rsp), %rax
.Ltmp4:
	.loc	3 382 35 prologue_end           # C:/Program Files/llvm-mingw-20231003-msvcrt-x86_64/include/stdio.h:382:35
	movq	%rax, 32(%rsp)
	.loc	3 383 32                        # C:/Program Files/llvm-mingw-20231003-msvcrt-x86_64/include/stdio.h:383:32
	movq	__imp___acrt_iob_func(%rip), %rax
	movl	$1, %ecx
	callq	*%rax
	movq	%rax, %rcx
	.loc	3 383 40 is_stmt 0              # C:/Program Files/llvm-mingw-20231003-msvcrt-x86_64/include/stdio.h:383:40
	movq	48(%rsp), %rdx
	.loc	3 383 50                        # C:/Program Files/llvm-mingw-20231003-msvcrt-x86_64/include/stdio.h:383:50
	movq	32(%rsp), %r8
	.loc	3 383 14                        # C:/Program Files/llvm-mingw-20231003-msvcrt-x86_64/include/stdio.h:383:14
	callq	__mingw_vfprintf
	.loc	3 383 12                        # C:/Program Files/llvm-mingw-20231003-msvcrt-x86_64/include/stdio.h:383:12
	movl	%eax, 44(%rsp)
	.loc	3 385 10 is_stmt 1              # C:/Program Files/llvm-mingw-20231003-msvcrt-x86_64/include/stdio.h:385:10
	movl	44(%rsp), %eax
	.loc	3 385 3 is_stmt 0               # C:/Program Files/llvm-mingw-20231003-msvcrt-x86_64/include/stdio.h:385:3
	.loc	3 385 3 epilogue_begin          # C:/Program Files/llvm-mingw-20231003-msvcrt-x86_64/include/stdio.h:385:3
	addq	$56, %rsp
	retq
.Ltmp5:
.Lfunc_end2:
	.seh_endproc
                                        # -- End function
	.def	Func2;
	.scl	2;
	.type	32;
	.endef
	.globl	Func2                           # -- Begin function Func2
	.p2align	4, 0x90
Func2:                                  # @Func2
.Lfunc_begin3:
	.loc	1 80 0 is_stmt 1                # test_context.c:80:0
.seh_proc Func2
# %bb.0:
	pushq	%rsi
	.seh_pushreg %rsi
	pushq	%rdi
	.seh_pushreg %rdi
	subq	$216, %rsp
	.seh_stackalloc 216
	movaps	%xmm15, 192(%rsp)               # 16-byte Spill
	.seh_savexmm %xmm15, 192
	movaps	%xmm14, 176(%rsp)               # 16-byte Spill
	.seh_savexmm %xmm14, 176
	movaps	%xmm13, 160(%rsp)               # 16-byte Spill
	.seh_savexmm %xmm13, 160
	movaps	%xmm12, 144(%rsp)               # 16-byte Spill
	.seh_savexmm %xmm12, 144
	movaps	%xmm11, 128(%rsp)               # 16-byte Spill
	.seh_savexmm %xmm11, 128
	movaps	%xmm10, 112(%rsp)               # 16-byte Spill
	.seh_savexmm %xmm10, 112
	movaps	%xmm9, 96(%rsp)                 # 16-byte Spill
	.seh_savexmm %xmm9, 96
	movaps	%xmm8, 80(%rsp)                 # 16-byte Spill
	.seh_savexmm %xmm8, 80
	movaps	%xmm7, 64(%rsp)                 # 16-byte Spill
	.seh_savexmm %xmm7, 64
	movaps	%xmm6, 48(%rsp)                 # 16-byte Spill
	.seh_savexmm %xmm6, 48
	.seh_endprologue
	.loc	1 81 5 prologue_end             # test_context.c:81:5
	leaq	.L.str.4(%rip), %rcx
	callq	printf
.Ltmp6:
	.loc	1 83 14                         # test_context.c:83:14
	movl	$0, 44(%rsp)
.LBB3_1:                                # =>This Inner Loop Header: Depth=1
.Ltmp7:
	.loc	1 83 23 is_stmt 0               # test_context.c:83:23
	cmpl	$10, 44(%rsp)
.Ltmp8:
	.loc	1 83 5                          # test_context.c:83:5
	jge	.LBB3_4
# %bb.2:                                #   in Loop: Header=BB3_1 Depth=1
.Ltmp9:
	.loc	1 84 21 is_stmt 1               # test_context.c:84:21
	movl	44(%rsp), %eax
	.loc	1 84 19 is_stmt 0               # test_context.c:84:19
	movl	%eax, func2_ret(%rip)
	.loc	1 85 9 is_stmt 1                # test_context.c:85:9
	leaq	func2_thread(%rip), %rdi
	leaq	main_thread(%rip), %rsi
	callq	Thread_Switch
.Ltmp10:
# %bb.3:                                #   in Loop: Header=BB3_1 Depth=1
	.loc	1 83 29                         # test_context.c:83:29
	movl	44(%rsp), %eax
	addl	$1, %eax
	movl	%eax, 44(%rsp)
	.loc	1 83 5 is_stmt 0                # test_context.c:83:5
	jmp	.LBB3_1
.Ltmp11:
.LBB3_4:
	.loc	1 88 5 is_stmt 1                # test_context.c:88:5
	jmp	.LBB3_5
.LBB3_5:                                # =>This Inner Loop Header: Depth=1
.Ltmp12:
	.loc	1 89 19                         # test_context.c:89:19
	movl	$-1, func2_ret(%rip)
	.loc	1 90 9                          # test_context.c:90:9
	leaq	func2_thread(%rip), %rdi
	leaq	main_thread(%rip), %rsi
	callq	Thread_Switch
.Ltmp13:
	.loc	1 88 5                          # test_context.c:88:5
	jmp	.LBB3_5
.Ltmp14:
.Lfunc_end3:
	.seh_endproc
                                        # -- End function
	.def	Func3;
	.scl	2;
	.type	32;
	.endef
	.globl	Func3                           # -- Begin function Func3
	.p2align	4, 0x90
Func3:                                  # @Func3
.Lfunc_begin4:
	.loc	1 94 0                          # test_context.c:94:0
.seh_proc Func3
# %bb.0:
	subq	$40, %rsp
	.seh_stackalloc 40
	.seh_endprologue
.Ltmp15:
	.loc	1 94 16 prologue_end            # test_context.c:94:16
	leaq	.L.str.5(%rip), %rcx
	callq	printf
	.loc	1 94 35 is_stmt 0               # test_context.c:94:35
	nop
	.loc	1 94 35 epilogue_begin          # test_context.c:94:35
	addq	$40, %rsp
	retq
.Ltmp16:
.Lfunc_end4:
	.seh_endproc
                                        # -- End function
	.def	PrintPCB;
	.scl	2;
	.type	32;
	.endef
	.globl	PrintPCB                        # -- Begin function PrintPCB
	.p2align	4, 0x90
PrintPCB:                               # @PrintPCB
.Lfunc_begin5:
	.loc	1 96 0 is_stmt 1                # test_context.c:96:0
.seh_proc PrintPCB
# %bb.0:
	subq	$40, %rsp
	.seh_stackalloc 40
	.seh_endprologue
	movq	%rcx, 32(%rsp)
.Ltmp17:
	.loc	1 97 33 prologue_end            # test_context.c:97:33
	movq	32(%rsp), %rax
	.loc	1 97 38 is_stmt 0               # test_context.c:97:38
	movq	(%rax), %rdx
	.loc	1 97 43                         # test_context.c:97:43
	movq	32(%rsp), %rax
	.loc	1 97 48                         # test_context.c:97:48
	movq	(%rax), %r8
	.loc	1 97 5                          # test_context.c:97:5
	leaq	.L.str.6(%rip), %rcx
	callq	printf
	.loc	1 98 33 is_stmt 1               # test_context.c:98:33
	movq	32(%rsp), %rax
	.loc	1 98 38 is_stmt 0               # test_context.c:98:38
	movq	8(%rax), %rdx
	.loc	1 98 43                         # test_context.c:98:43
	movq	32(%rsp), %rax
	.loc	1 98 48                         # test_context.c:98:48
	movq	8(%rax), %r8
	.loc	1 98 5                          # test_context.c:98:5
	leaq	.L.str.7(%rip), %rcx
	callq	printf
	.loc	1 99 33 is_stmt 1               # test_context.c:99:33
	movq	32(%rsp), %rax
	.loc	1 99 38 is_stmt 0               # test_context.c:99:38
	movq	16(%rax), %rdx
	.loc	1 99 43                         # test_context.c:99:43
	movq	32(%rsp), %rax
	.loc	1 99 48                         # test_context.c:99:48
	movq	16(%rax), %r8
	.loc	1 99 5                          # test_context.c:99:5
	leaq	.L.str.8(%rip), %rcx
	callq	printf
	.loc	1 100 33 is_stmt 1              # test_context.c:100:33
	movq	32(%rsp), %rax
	.loc	1 100 38 is_stmt 0              # test_context.c:100:38
	movq	24(%rax), %rdx
	.loc	1 100 43                        # test_context.c:100:43
	movq	32(%rsp), %rax
	.loc	1 100 48                        # test_context.c:100:48
	movq	24(%rax), %r8
	.loc	1 100 5                         # test_context.c:100:5
	leaq	.L.str.9(%rip), %rcx
	callq	printf
	.loc	1 102 33 is_stmt 1              # test_context.c:102:33
	movq	32(%rsp), %rax
	.loc	1 102 38 is_stmt 0              # test_context.c:102:38
	movq	32(%rax), %rdx
	.loc	1 102 43                        # test_context.c:102:43
	movq	32(%rsp), %rax
	.loc	1 102 48                        # test_context.c:102:48
	movq	32(%rax), %r8
	.loc	1 102 5                         # test_context.c:102:5
	leaq	.L.str.10(%rip), %rcx
	callq	printf
	.loc	1 103 33 is_stmt 1              # test_context.c:103:33
	movq	32(%rsp), %rax
	.loc	1 103 38 is_stmt 0              # test_context.c:103:38
	movq	40(%rax), %rdx
	.loc	1 103 43                        # test_context.c:103:43
	movq	32(%rsp), %rax
	.loc	1 103 48                        # test_context.c:103:48
	movq	40(%rax), %r8
	.loc	1 103 5                         # test_context.c:103:5
	leaq	.L.str.11(%rip), %rcx
	callq	printf
	.loc	1 105 33 is_stmt 1              # test_context.c:105:33
	movq	32(%rsp), %rax
	.loc	1 105 38 is_stmt 0              # test_context.c:105:38
	movq	48(%rax), %rdx
	.loc	1 105 43                        # test_context.c:105:43
	movq	32(%rsp), %rax
	.loc	1 105 48                        # test_context.c:105:48
	movq	48(%rax), %r8
	.loc	1 105 5                         # test_context.c:105:5
	leaq	.L.str.12(%rip), %rcx
	callq	printf
	.loc	1 106 33 is_stmt 1              # test_context.c:106:33
	movq	32(%rsp), %rax
	.loc	1 106 38 is_stmt 0              # test_context.c:106:38
	movq	56(%rax), %rdx
	.loc	1 106 43                        # test_context.c:106:43
	movq	32(%rsp), %rax
	.loc	1 106 48                        # test_context.c:106:48
	movq	56(%rax), %r8
	.loc	1 106 5                         # test_context.c:106:5
	leaq	.L.str.13(%rip), %rcx
	callq	printf
	.loc	1 108 32 is_stmt 1              # test_context.c:108:32
	movq	32(%rsp), %rax
	.loc	1 108 37 is_stmt 0              # test_context.c:108:37
	movq	64(%rax), %rdx
	.loc	1 108 41                        # test_context.c:108:41
	movq	32(%rsp), %rax
	.loc	1 108 46                        # test_context.c:108:46
	movq	64(%rax), %r8
	.loc	1 108 5                         # test_context.c:108:5
	leaq	.L.str.14(%rip), %rcx
	callq	printf
	.loc	1 109 32 is_stmt 1              # test_context.c:109:32
	movq	32(%rsp), %rax
	.loc	1 109 37 is_stmt 0              # test_context.c:109:37
	movq	72(%rax), %rdx
	.loc	1 109 41                        # test_context.c:109:41
	movq	32(%rsp), %rax
	.loc	1 109 46                        # test_context.c:109:46
	movq	72(%rax), %r8
	.loc	1 109 5                         # test_context.c:109:5
	leaq	.L.str.15(%rip), %rcx
	callq	printf
	.loc	1 110 33 is_stmt 1              # test_context.c:110:33
	movq	32(%rsp), %rax
	.loc	1 110 38 is_stmt 0              # test_context.c:110:38
	movq	80(%rax), %rdx
	.loc	1 110 43                        # test_context.c:110:43
	movq	32(%rsp), %rax
	.loc	1 110 48                        # test_context.c:110:48
	movq	80(%rax), %r8
	.loc	1 110 5                         # test_context.c:110:5
	leaq	.L.str.16(%rip), %rcx
	callq	printf
	.loc	1 111 33 is_stmt 1              # test_context.c:111:33
	movq	32(%rsp), %rax
	.loc	1 111 38 is_stmt 0              # test_context.c:111:38
	movq	88(%rax), %rdx
	.loc	1 111 43                        # test_context.c:111:43
	movq	32(%rsp), %rax
	.loc	1 111 48                        # test_context.c:111:48
	movq	88(%rax), %r8
	.loc	1 111 5                         # test_context.c:111:5
	leaq	.L.str.17(%rip), %rcx
	callq	printf
	.loc	1 113 33 is_stmt 1              # test_context.c:113:33
	movq	32(%rsp), %rax
	.loc	1 113 38 is_stmt 0              # test_context.c:113:38
	movq	96(%rax), %rdx
	.loc	1 113 43                        # test_context.c:113:43
	movq	32(%rsp), %rax
	.loc	1 113 48                        # test_context.c:113:48
	movq	96(%rax), %r8
	.loc	1 113 5                         # test_context.c:113:5
	leaq	.L.str.18(%rip), %rcx
	callq	printf
	.loc	1 114 33 is_stmt 1              # test_context.c:114:33
	movq	32(%rsp), %rax
	.loc	1 114 38 is_stmt 0              # test_context.c:114:38
	movq	104(%rax), %rdx
	.loc	1 114 43                        # test_context.c:114:43
	movq	32(%rsp), %rax
	.loc	1 114 48                        # test_context.c:114:48
	movq	104(%rax), %r8
	.loc	1 114 5                         # test_context.c:114:5
	leaq	.L.str.19(%rip), %rcx
	callq	printf
	.loc	1 115 33 is_stmt 1              # test_context.c:115:33
	movq	32(%rsp), %rax
	.loc	1 115 38 is_stmt 0              # test_context.c:115:38
	movq	112(%rax), %rdx
	.loc	1 115 43                        # test_context.c:115:43
	movq	32(%rsp), %rax
	.loc	1 115 48                        # test_context.c:115:48
	movq	112(%rax), %r8
	.loc	1 115 5                         # test_context.c:115:5
	leaq	.L.str.20(%rip), %rcx
	callq	printf
	.loc	1 116 33 is_stmt 1              # test_context.c:116:33
	movq	32(%rsp), %rax
	.loc	1 116 38 is_stmt 0              # test_context.c:116:38
	movq	120(%rax), %rdx
	.loc	1 116 43                        # test_context.c:116:43
	movq	32(%rsp), %rax
	.loc	1 116 48                        # test_context.c:116:48
	movq	120(%rax), %r8
	.loc	1 116 5                         # test_context.c:116:5
	leaq	.L.str.21(%rip), %rcx
	callq	printf
	.loc	1 118 36 is_stmt 1              # test_context.c:118:36
	movq	32(%rsp), %rax
	.loc	1 118 41 is_stmt 0              # test_context.c:118:41
	movq	128(%rax), %rdx
	.loc	1 118 49                        # test_context.c:118:49
	movq	32(%rsp), %rax
	.loc	1 118 54                        # test_context.c:118:54
	movq	128(%rax), %r8
	.loc	1 118 5                         # test_context.c:118:5
	leaq	.L.str.22(%rip), %rcx
	callq	printf
	.loc	1 120 33 is_stmt 1              # test_context.c:120:33
	movq	32(%rsp), %rax
	.loc	1 120 38 is_stmt 0              # test_context.c:120:38
	movq	136(%rax), %rdx
	.loc	1 120 43                        # test_context.c:120:43
	movq	32(%rsp), %rax
	.loc	1 120 48                        # test_context.c:120:48
	movq	136(%rax), %r8
	.loc	1 120 5                         # test_context.c:120:5
	leaq	.L.str.23(%rip), %rcx
	callq	printf
	.loc	1 121 1 is_stmt 1               # test_context.c:121:1
	nop
	.loc	1 121 1 epilogue_begin is_stmt 0 # test_context.c:121:1
	addq	$40, %rsp
	retq
.Ltmp18:
.Lfunc_end5:
	.seh_endproc
                                        # -- End function
	.def	main;
	.scl	2;
	.type	32;
	.endef
	.globl	main                            # -- Begin function main
	.p2align	4, 0x90
main:                                   # @main
.Lfunc_begin6:
	.loc	1 123 0 is_stmt 1               # test_context.c:123:0
.seh_proc main
# %bb.0:
	pushq	%rbp
	.seh_pushreg %rbp
	pushq	%rsi
	.seh_pushreg %rsi
	pushq	%rdi
	.seh_pushreg %rdi
	subq	$208, %rsp
	.seh_stackalloc 208
	leaq	128(%rsp), %rbp
	.seh_setframe %rbp, 128
	movaps	%xmm15, 64(%rbp)                # 16-byte Spill
	.seh_savexmm %xmm15, 192
	movaps	%xmm14, 48(%rbp)                # 16-byte Spill
	.seh_savexmm %xmm14, 176
	movaps	%xmm13, 32(%rbp)                # 16-byte Spill
	.seh_savexmm %xmm13, 160
	movaps	%xmm12, 16(%rbp)                # 16-byte Spill
	.seh_savexmm %xmm12, 144
	movaps	%xmm11, (%rbp)                  # 16-byte Spill
	.seh_savexmm %xmm11, 128
	movaps	%xmm10, -16(%rbp)               # 16-byte Spill
	.seh_savexmm %xmm10, 112
	movaps	%xmm9, -32(%rbp)                # 16-byte Spill
	.seh_savexmm %xmm9, 96
	movaps	%xmm8, -48(%rbp)                # 16-byte Spill
	.seh_savexmm %xmm8, 80
	movaps	%xmm7, -64(%rbp)                # 16-byte Spill
	.seh_savexmm %xmm7, 64
	movaps	%xmm6, -80(%rbp)                # 16-byte Spill
	.seh_savexmm %xmm6, 48
	.seh_endprologue
	callq	__main
	movl	$0, -84(%rbp)
.Ltmp19:
	.loc	1 124 5 prologue_end            # test_context.c:124:5
	leaq	func1_thread(%rip), %rcx
	leaq	Func1(%rip), %rdx
	callq	Thread_Create
	.loc	1 125 5                         # test_context.c:125:5
	leaq	func2_thread(%rip), %rcx
	leaq	Func2(%rip), %rdx
	callq	Thread_Create
	.loc	1 127 15                        # test_context.c:127:15
	movl	$-2, func2_ret(%rip)
	.loc	1 129 5                         # test_context.c:129:5
	leaq	.L.str(%rip), %rcx
	leaq	.L.str.1(%rip), %rdx
	movl	$129, %r8d
	callq	printf
.LBB6_1:                                # =>This Inner Loop Header: Depth=1
.Ltmp20:
	.loc	1 132 9                         # test_context.c:132:9
	leaq	main_thread(%rip), %rdi
	leaq	func2_thread(%rip), %rsi
	callq	Thread_Switch
	.loc	1 133 9                         # test_context.c:133:9
	movl	func2_ret(%rip), %ecx
	movq	%rsp, %rax
	movl	%ecx, 32(%rax)
	leaq	.L.str.24(%rip), %rcx
	leaq	.L.str.1(%rip), %rdx
	leaq	.L.str.25(%rip), %r9
	movl	$133, %r8d
	callq	printf
.Ltmp21:
# %bb.2:                                #   in Loop: Header=BB6_1 Depth=1
	.loc	1 134 24                        # test_context.c:134:24
	cmpl	$-1, func2_ret(%rip)
.Ltmp22:
	.loc	1 134 5 is_stmt 0               # test_context.c:134:5
	jne	.LBB6_1
.Ltmp23:
# %bb.3:
	.loc	1 136 5 is_stmt 1               # test_context.c:136:5
	xorl	%eax, %eax
	movaps	-80(%rbp), %xmm6                # 16-byte Reload
	movaps	-64(%rbp), %xmm7                # 16-byte Reload
	movaps	-48(%rbp), %xmm8                # 16-byte Reload
	movaps	-32(%rbp), %xmm9                # 16-byte Reload
	movaps	-16(%rbp), %xmm10               # 16-byte Reload
	movaps	(%rbp), %xmm11                  # 16-byte Reload
	movaps	16(%rbp), %xmm12                # 16-byte Reload
	movaps	32(%rbp), %xmm13                # 16-byte Reload
	movaps	48(%rbp), %xmm14                # 16-byte Reload
	movaps	64(%rbp), %xmm15                # 16-byte Reload
	.loc	1 136 5 epilogue_begin is_stmt 0 # test_context.c:136:5
	addq	$208, %rsp
	popq	%rdi
	popq	%rsi
	popq	%rbp
	retq
.Ltmp24:
.Lfunc_end6:
	.seh_endproc
                                        # -- End function
	.section	.rdata,"dr"
.L.str:                                 # @.str
	.asciz	"print pos at %s:%d\n"

.L.str.1:                               # @.str.1
	.asciz	"D:/ZetaDevelop/ZetaExe/test_context.c"

.L.str.2:                               # @.str.2
	.asciz	"&main_thread = %llu\n"

	.bss
	.globl	main_thread                     # @main_thread
	.p2align	3, 0x0
main_thread:
	.zero	8

	.section	.rdata,"dr"
.L.str.3:                               # @.str.3
	.asciz	"main_thread.stack = %llu\n"

.L.str.4:                               # @.str.4
	.asciz	"func2\n"

	.bss
	.globl	func2_ret                       # @func2_ret
	.p2align	2, 0x0
func2_ret:
	.long	0                               # 0x0

	.globl	func2_thread                    # @func2_thread
	.p2align	3, 0x0
func2_thread:
	.zero	8

	.section	.rdata,"dr"
.L.str.5:                               # @.str.5
	.asciz	"func3\n"

.L.str.6:                               # @.str.6
	.asciz	"rax\t%lld\t%llu\n"

.L.str.7:                               # @.str.7
	.asciz	"rbx\t%lld\t%llu\n"

.L.str.8:                               # @.str.8
	.asciz	"rcx\t%lld\t%llu\n"

.L.str.9:                               # @.str.9
	.asciz	"rdx\t%lld\t%llu\n"

.L.str.10:                              # @.str.10
	.asciz	"rsi\t%lld\t%llu\n"

.L.str.11:                              # @.str.11
	.asciz	"rdi\t%lld\t%llu\n"

.L.str.12:                              # @.str.12
	.asciz	"rbp\t%lld\t%llu\n"

.L.str.13:                              # @.str.13
	.asciz	"rsp\t%lld\t%llu\n"

.L.str.14:                              # @.str.14
	.asciz	"r8\t%lld\t%llu\n"

.L.str.15:                              # @.str.15
	.asciz	"r9\t%lld\t%llu\n"

.L.str.16:                              # @.str.16
	.asciz	"r10\t%lld\t%llu\n"

.L.str.17:                              # @.str.17
	.asciz	"r11\t%lld\t%llu\n"

.L.str.18:                              # @.str.18
	.asciz	"r12\t%lld\t%llu\n"

.L.str.19:                              # @.str.19
	.asciz	"r13\t%lld\t%llu\n"

.L.str.20:                              # @.str.20
	.asciz	"r14\t%lld\t%llu\n"

.L.str.21:                              # @.str.21
	.asciz	"r15\t%lld\t%llu\n"

.L.str.22:                              # @.str.22
	.asciz	"eflags\t%lld\t%llu\n"

.L.str.23:                              # @.str.23
	.asciz	"rip\t%lld\t%llu\n"

	.bss
	.globl	func1_thread                    # @func1_thread
	.p2align	3, 0x0
func1_thread:
	.zero	8

	.section	.rdata,"dr"
.L.str.24:                              # @.str.24
	.asciz	"print var at %s:%d\n    %s = %d\n\n"

.L.str.25:                              # @.str.25
	.asciz	"func2_ret"

	.bss
	.globl	RIP_SAVE                        # @RIP_SAVE
	.p2align	3, 0x0
RIP_SAVE:
	.quad	0                               # 0x0

	.file	4 "C:/Program Files/llvm-mingw-20231003-msvcrt-x86_64/lib/clang/17/include" "stddef.h"